; Function Attrs: cold mustprogress uwtable
define internal fastcc noundef ptr @_ZN4absl18debugging_internal12_GLOBAL__N_124DemangleStackConsumptionEPKcPi(ptr noundef %0, ptr noundef nonnull captures(none) initializes((0, 4)) %1) unnamed_addr #13 personality ptr @__gxx_personality_v0 {
  %3 = alloca i32, align 4
  %4 = alloca %"class.absl::log_internal::LogMessage", align 8
  store ptr %0, ptr @_ZN4absl18debugging_internal12_GLOBAL__N_19g_mangledE, align 8, !tbaa !77
  %5 = tail call noundef i32 @_ZN4absl18debugging_internal32GetSignalHandlerStackConsumptionEPFviE(ptr noundef nonnull @_ZN4absl18debugging_internal12_GLOBAL__N_121DemangleSignalHandlerEi)
  store i32 %5, ptr %1, align 4, !tbaa !42
  call void @llvm.lifetime.start.p0(i64 16, ptr nonnull %4) #25
  call void @_ZN4absl12log_internal10LogMessageC1EPKciNS1_7InfoTagE(ptr noundef nonnull align 8 dereferenceable(16) %4, ptr noundef nonnull @.str.3, i32 noundef 1934) #29
  invoke void @_ZN4absl12log_internal10LogMessage19CopyToEncodedBufferILNS1_10StringTypeE0EEEvSt17basic_string_viewIcSt11char_traitsIcEE(ptr noundef nonnull align 8 dereferenceable(16) %4, i64 31, ptr nonnull @.str.729)
          to label %_ZN4absl12log_internal10LogMessagelsILi32EEERS1_RAT__Kc.exit unwind label %10

_ZN4absl12log_internal10LogMessagelsILi32EEERS1_RAT__Kc.exit: ; preds = %2
  %6 = load i32, ptr %1, align 4, !tbaa !42
  call void @llvm.lifetime.start.p0(i64 4, ptr nonnull %3)
  store i32 %6, ptr %3, align 4, !tbaa !42
  %7 = invoke noundef nonnull align 8 dereferenceable(16) ptr @_ZN4absl12log_internal10LogMessagelsIiTnNSt9enable_ifIXntsr4absl16HasAbslStringifyIT_EE5valueEiE4typeELi0EEERS1_RKS4_(ptr noundef nonnull align 8 dereferenceable(16) %4, ptr noundef nonnull align 4 dereferenceable(4) %3)
          to label %8 unwind label %10

8:                                                ; preds = %_ZN4absl12log_internal10LogMessagelsILi32EEERS1_RAT__Kc.exit
  call void @llvm.lifetime.end.p0(i64 4, ptr nonnull %3)
  call void @_ZN4absl12log_internal10LogMessageD1Ev(ptr noundef nonnull align 8 dereferenceable(16) %4) #30
  call void @llvm.lifetime.end.p0(i64 16, ptr nonnull %4) #25
  %9 = load ptr, ptr @_ZN4absl18debugging_internal12_GLOBAL__N_117g_demangle_resultE, align 8, !tbaa !77
  ret ptr %9

10:                                               ; preds = %_ZN4absl12log_internal10LogMessagelsILi32EEERS1_RAT__Kc.exit, %2
  %11 = landingpad { ptr, i32 }
          cleanup
  call void @_ZN4absl12log_internal10LogMessageD1Ev(ptr noundef nonnull align 8 dereferenceable(16) %4) #30
  call void @llvm.lifetime.end.p0(i64 16, ptr nonnull %4) #25
  resume { ptr, i32 } %11
}